	.file	"accesingPassArgs64.c"
	.text
	.globl	f
	.type	f, @function
f:
.LFB0:
	.cfi_startproc
	pushq	%rbp
	.cfi_def_cfa_offset 16
	.cfi_offset 6, -16
	movq	%rsp, %rbp
	.cfi_def_cfa_register 6
	movq	%rdi, -8(%rbp)
	movq	%rsi, -16(%rbp)
	movq	%rdx, -24(%rbp)
	movq	-8(%rbp), %rax
	imulq	-16(%rbp), %rax
	movq	%rax, %rdx
	movq	-24(%rbp), %rax
	addq	%rdx, %rax
	popq	%rbp
	.cfi_def_cfa 7, 8
	ret
	.cfi_endproc
.LFE0:
	.size	f, .-f
	.section	.rodata
.LC0:
	.string	"%lld\n"
	.text
	.globl	main
	.type	main, @function
main:
.LFB1:
	.cfi_startproc
	pushq	%rbp
	.cfi_def_cfa_offset 16
	.cfi_offset 6, -16
	movq	%rsp, %rbp
	.cfi_def_cfa_register 6
	subq	$16, %rsp
	movabsq	$3689348815028241476, %rdx
	movabsq	$1229782938533634594, %rsi
	movabsq	$1234605616436508552, %rdi
	call	f
	movq	%rax, -8(%rbp)
	movq	-8(%rbp), %rax
	movq	%rax, %rsi
	movl	$.LC0, %edi
	movl	$0, %eax
	call	printf
	movl	$0, %eax
	leave
	.cfi_def_cfa 7, 8
	ret
	.cfi_endproc
.LFE1:
	.size	main, .-main
	.ident	"GCC: (Ubuntu 5.4.0-6ubuntu1~16.04.4) 5.4.0 20160609"
	.section	.note.GNU-stack,"",@progbits
