	.file	"allocat.c"
	.section	.rodata
.LC0:
	.string	"hi! %d, %d, %d\n"
	.text
	.globl	f
	.type	f, @function
f:
.LFB0:
	.cfi_startproc
	pushq	%rbp
	.cfi_def_cfa_offset 16
	.cfi_offset 6, -16
	movq	%rsp, %rbp
	.cfi_def_cfa_register 6
	subq	$16, %rsp
	movq	%fs:40, %rax
	movq	%rax, -8(%rbp)
	xorl	%eax, %eax
	movl	$16, %eax
	subq	$1, %rax
	addq	$615, %rax
	movl	$16, %ecx
	movl	$0, %edx
	divq	%rcx
	imulq	$16, %rax, %rax
	subq	%rax, %rsp
	movq	%rsp, %rax
	addq	$15, %rax
	shrq	$4, %rax
	salq	$4, %rax
	movq	%rax, -16(%rbp)
	movq	-16(%rbp), %rax
	movl	$3, %r9d
	movl	$2, %r8d
	movl	$1, %ecx
	movl	$.LC0, %edx
	movl	$600, %esi
	movq	%rax, %rdi
	movl	$0, %eax
	call	snprintf
	movq	-16(%rbp), %rax
	movq	%rax, %rdi
	call	puts
	nop
	movq	-8(%rbp), %rax
	xorq	%fs:40, %rax
	je	.L2
	call	__stack_chk_fail
.L2:
	leave
	.cfi_def_cfa 7, 8
	ret
	.cfi_endproc
.LFE0:
	.size	f, .-f
	.globl	main
	.type	main, @function
main:
.LFB1:
	.cfi_startproc
	pushq	%rbp
	.cfi_def_cfa_offset 16
	.cfi_offset 6, -16
	movq	%rsp, %rbp
	.cfi_def_cfa_register 6
	movl	$0, %eax
	call	f
	nop
	popq	%rbp
	.cfi_def_cfa 7, 8
	ret
	.cfi_endproc
.LFE1:
	.size	main, .-main
	.ident	"GCC: (Ubuntu 5.4.0-6ubuntu1~16.04.4) 5.4.0 20160609"
	.section	.note.GNU-stack,"",@progbits
