	.file	"helloWorldTwoFunctions.c"
	.section	.rodata
.LC0:
	.string	"world!!"
	.text
	.globl	f1
	.type	f1, @function
f1:
.LFB0:
	.cfi_startproc
	pushq	%rbp
	.cfi_def_cfa_offset 16
	.cfi_offset 6, -16
	movq	%rsp, %rbp
	.cfi_def_cfa_register 6
	movl	$.LC0, %edi
	call	puts
	nop
	popq	%rbp
	.cfi_def_cfa 7, 8
	ret
	.cfi_endproc
.LFE0:
	.size	f1, .-f1
	.section	.rodata
.LC1:
	.string	"Hello world!!"
	.text
	.globl	f2
	.type	f2, @function
f2:
.LFB1:
	.cfi_startproc
	pushq	%rbp
	.cfi_def_cfa_offset 16
	.cfi_offset 6, -16
	movq	%rsp, %rbp
	.cfi_def_cfa_register 6
	movl	$.LC1, %edi
	call	puts
	nop
	popq	%rbp
	.cfi_def_cfa 7, 8
	ret
	.cfi_endproc
.LFE1:
	.size	f2, .-f2
	.globl	main
	.type	main, @function
main:
.LFB2:
	.cfi_startproc
	pushq	%rbp
	.cfi_def_cfa_offset 16
	.cfi_offset 6, -16
	movq	%rsp, %rbp
	.cfi_def_cfa_register 6
	movl	$0, %eax
	call	f1
	movl	$0, %eax
	call	f2
	movl	$0, %eax
	popq	%rbp
	.cfi_def_cfa 7, 8
	ret
	.cfi_endproc
.LFE2:
	.size	main, .-main
	.ident	"GCC: (Ubuntu 5.4.0-6ubuntu1~16.04.4) 5.4.0 20160609"
	.section	.note.GNU-stack,"",@progbits
