	.file	"returnMultiplesValueLocal.c"
	.text
	.globl	f1
	.type	f1, @function
f1:
.LFB0:
	.cfi_startproc
	pushq	%rbp
	.cfi_def_cfa_offset 16
	.cfi_offset 6, -16
	movq	%rsp, %rbp
	.cfi_def_cfa_register 6
	movl	%edi, -4(%rbp)
	movl	%esi, -8(%rbp)
	movq	%rdx, -16(%rbp)
	movq	%rcx, -24(%rbp)
	movl	-4(%rbp), %edx
	movl	-8(%rbp), %eax
	addl	%eax, %edx
	movq	-16(%rbp), %rax
	movl	%edx, (%rax)
	movl	-4(%rbp), %eax
	imull	-8(%rbp), %eax
	movl	%eax, %edx
	movq	-24(%rbp), %rax
	movl	%edx, (%rax)
	nop
	popq	%rbp
	.cfi_def_cfa 7, 8
	ret
	.cfi_endproc
.LFE0:
	.size	f1, .-f1
	.section	.rodata
.LC0:
	.string	"sum=%d, product=%d\n"
	.text
	.globl	main
	.type	main, @function
main:
.LFB1:
	.cfi_startproc
	pushq	%rbp
	.cfi_def_cfa_offset 16
	.cfi_offset 6, -16
	movq	%rsp, %rbp
	.cfi_def_cfa_register 6
	subq	$16, %rsp
	movq	%fs:40, %rax
	movq	%rax, -8(%rbp)
	xorl	%eax, %eax
	leaq	-12(%rbp), %rdx
	leaq	-16(%rbp), %rax
	movq	%rdx, %rcx
	movq	%rax, %rdx
	movl	$456, %esi
	movl	$123, %edi
	call	f1
	movl	-12(%rbp), %edx
	movl	-16(%rbp), %eax
	movl	%eax, %esi
	movl	$.LC0, %edi
	movl	$0, %eax
	call	printf
	nop
	movq	-8(%rbp), %rax
	xorq	%fs:40, %rax
	je	.L3
	call	__stack_chk_fail
.L3:
	leave
	.cfi_def_cfa 7, 8
	ret
	.cfi_endproc
.LFE1:
	.size	main, .-main
	.ident	"GCC: (Ubuntu 5.4.0-6ubuntu1~16.04.4) 5.4.0 20160609"
	.section	.note.GNU-stack,"",@progbits
