	.file	"stackNoise.c"
	.text
	.globl	f1
	.type	f1, @function
f1:
.LFB0:
	.cfi_startproc
	pushq	%rbp
	.cfi_def_cfa_offset 16
	.cfi_offset 6, -16
	movq	%rsp, %rbp
	.cfi_def_cfa_register 6
	movl	$1, -12(%rbp)
	movl	$2, -8(%rbp)
	movl	$3, -4(%rbp)
	nop
	popq	%rbp
	.cfi_def_cfa 7, 8
	ret
	.cfi_endproc
.LFE0:
	.size	f1, .-f1
	.section	.rodata
.LC0:
	.string	"%d, %d, %d\n"
	.text
	.globl	f2
	.type	f2, @function
f2:
.LFB1:
	.cfi_startproc
	pushq	%rbp
	.cfi_def_cfa_offset 16
	.cfi_offset 6, -16
	movq	%rsp, %rbp
	.cfi_def_cfa_register 6
	subq	$16, %rsp
	movl	-4(%rbp), %ecx
	movl	-8(%rbp), %edx
	movl	-12(%rbp), %eax
	movl	%eax, %esi
	movl	$.LC0, %edi
	movl	$0, %eax
	call	printf
	nop
	leave
	.cfi_def_cfa 7, 8
	ret
	.cfi_endproc
.LFE1:
	.size	f2, .-f2
	.globl	main
	.type	main, @function
main:
.LFB2:
	.cfi_startproc
	pushq	%rbp
	.cfi_def_cfa_offset 16
	.cfi_offset 6, -16
	movq	%rsp, %rbp
	.cfi_def_cfa_register 6
	movl	$0, %eax
	call	f1
	movl	$0, %eax
	call	f2
	movl	$0, %eax
	popq	%rbp
	.cfi_def_cfa 7, 8
	ret
	.cfi_endproc
.LFE2:
	.size	main, .-main
	.ident	"GCC: (Ubuntu 5.4.0-6ubuntu1~16.04.4) 5.4.0 20160609"
	.section	.note.GNU-stack,"",@progbits
